target datalayout = "e-m:e-p270:32:32-p271:32:32-p272:64:64-i64:64-i128:128-f80:128-n8:16:32:64-S128"
target triple = "x86_64-pc-linux-gnu"

; Function Attrs: nounwind uwtable
define internal i32 @experimental_hooks_safety_check_abort_ctl(ptr noundef %0, ptr noundef %1, i64 noundef %2, ptr noundef %3, ptr noundef %4, ptr noundef %5, i64 noundef %6) #0 {
  %8 = alloca i32, align 4
  %9 = alloca ptr, align 8
  %10 = alloca ptr, align 8
  %11 = alloca i64, align 8
  %12 = alloca ptr, align 8
  %13 = alloca ptr, align 8
  %14 = alloca ptr, align 8
  %15 = alloca i64, align 8
  %16 = alloca i32, align 4
  %17 = alloca ptr, align 8
  %18 = alloca i32, align 4
  store ptr %0, ptr %9, align 8, !tbaa !4
  store ptr %1, ptr %10, align 8, !tbaa !12
  store i64 %2, ptr %11, align 8, !tbaa !14
  store ptr %3, ptr %12, align 8, !tbaa !11
  store ptr %4, ptr %13, align 8, !tbaa !12
  store ptr %5, ptr %14, align 8, !tbaa !11
  store i64 %6, ptr %15, align 8, !tbaa !14
  call void @llvm.lifetime.start.p0(i64 4, ptr %16) #13
  br label %19

19:                                               ; preds = %7
  %20 = load ptr, ptr %12, align 8, !tbaa !11
  %21 = icmp ne ptr %20, null
  br i1 %21, label %25, label %22

22:                                               ; preds = %19
  %23 = load ptr, ptr %13, align 8, !tbaa !12
  %24 = icmp ne ptr %23, null
  br i1 %24, label %25, label %26

25:                                               ; preds = %22, %19
  store i32 1, ptr %16, align 4, !tbaa !20
  br label %54

26:                                               ; preds = %22
  br label %27

27:                                               ; preds = %26
  br label %28

28:                                               ; preds = %27
  %29 = load ptr, ptr %14, align 8, !tbaa !11
  %30 = icmp ne ptr %29, null
  br i1 %30, label %31, label %53

31:                                               ; preds = %28
  %32 = load i64, ptr %15, align 8, !tbaa !14
  %33 = icmp ne i64 %32, 8
  br i1 %33, label %34, label %35

34:                                               ; preds = %31
  store i32 22, ptr %16, align 4, !tbaa !20
  br label %54

35:                                               ; preds = %31
  call void @llvm.lifetime.start.p0(i64 8, ptr %17) #13
  store ptr null, ptr %17, align 8, !tbaa !11
  br label %36

36:                                               ; preds = %35
  %37 = load ptr, ptr %14, align 8, !tbaa !11
  %38 = icmp ne ptr %37, null
  br i1 %38, label %39, label %46

39:                                               ; preds = %36
  %40 = load i64, ptr %15, align 8, !tbaa !14
  %41 = icmp ne i64 %40, 8
  br i1 %41, label %42, label %43

42:                                               ; preds = %39
  store i32 22, ptr %16, align 4, !tbaa !20
  store i32 4, ptr %18, align 4
  br label %50

43:                                               ; preds = %39
  %44 = load ptr, ptr %14, align 8, !tbaa !11
  %45 = load ptr, ptr %44, align 8, !tbaa !11
  store ptr %45, ptr %17, align 8, !tbaa !11
  br label %46

46:                                               ; preds = %43, %36
  br label %47

47:                                               ; preds = %46
  br label %48

48:                                               ; preds = %47
  %49 = load ptr, ptr %17, align 8, !tbaa !11
  call void @je_safety_check_set_abort(ptr noundef %49)
  store i32 0, ptr %18, align 4
  br label %50

50:                                               ; preds = %42, %48
  call void @llvm.lifetime.end.p0(i64 8, ptr %17) #13
  %51 = load i32, ptr %18, align 4
  switch i32 %51, label %56 [
    i32 0, label %52
    i32 4, label %54
  ]

52:                                               ; preds = %50
  br label %53

53:                                               ; preds = %52, %28
  store i32 0, ptr %16, align 4, !tbaa !20
  br label %54

54:                                               ; preds = %53, %50, %34, %25
  %55 = load i32, ptr %16, align 4, !tbaa !20
  store i32 %55, ptr %8, align 4
  store i32 1, ptr %18, align 4
  br label %56

56:                                               ; preds = %54, %50
  call void @llvm.lifetime.end.p0(i64 4, ptr %16) #13
  %57 = load i32, ptr %8, align 4
  ret i32 %57
}